target datalayout = "e-m:e-p270:32:32-p271:32:32-p272:64:64-i64:64-i128:128-f80:128-n8:16:32:64-S128"
target triple = "x86_64-pc-linux-gnu"

%struct.slurm_preempt_ops = type { ptr, ptr, ptr }

@plugin_inited = internal global i32 0, align 4
@ops = internal global %struct.slurm_preempt_ops zeroinitializer, align 8

; Function Attrs: nounwind uwtable
define dso_local i32 @slurm_job_get_grace_time(ptr noundef %0) #0 {
  %2 = alloca i32, align 4
  %3 = alloca ptr, align 8
  %4 = alloca i32, align 4
  %5 = alloca i32, align 4
  store ptr %0, ptr %3, align 8
  call void @llvm.lifetime.start.p0(i64 4, ptr %4) #6
  store i32 0, ptr %4, align 4
  %6 = load i32, ptr @plugin_inited, align 4
  %7 = icmp eq i32 %6, 1
  br i1 %7, label %8, label %9

8:                                                ; preds = %1
  store i32 0, ptr %2, align 4
  store i32 1, ptr %5, align 4
  br label %18

9:                                                ; preds = %1
  %10 = load ptr, ptr getelementptr inbounds nuw (%struct.slurm_preempt_ops, ptr @ops, i32 0, i32 2), align 8
  %11 = load ptr, ptr %3, align 8
  %12 = call i32 %10(ptr noundef %11, i32 noundef 3, ptr noundef %4)
  %13 = icmp ne i32 %12, 0
  br i1 %13, label %14, label %16

14:                                               ; preds = %9
  %15 = load i32, ptr %4, align 4
  store i32 %15, ptr %2, align 4
  store i32 1, ptr %5, align 4
  br label %18

16:                                               ; preds = %9
  %17 = load i32, ptr %4, align 4
  store i32 %17, ptr %2, align 4
  store i32 1, ptr %5, align 4
  br label %18

18:                                               ; preds = %16, %14, %8
  call void @llvm.lifetime.end.p0(i64 4, ptr %4) #6
  %19 = load i32, ptr %2, align 4
  ret i32 %19
}