; Function Attrs: nounwind uwtable
define dso_local i32 @slurm_job_get_grace_time(ptr noundef %0) local_unnamed_addr #0 {
  %2 = alloca i32, align 4
  call void @llvm.lifetime.start.p0(i64 4, ptr nonnull %2) #8
  store i32 0, ptr %2, align 4
  %3 = load i32, ptr @plugin_inited, align 4
  %4 = icmp eq i32 %3, 1
  br i1 %4, label %9, label %5

5:                                                ; preds = %1
  %6 = load ptr, ptr getelementptr inbounds nuw (i8, ptr @ops, i64 16), align 8
  %7 = call i32 %6(ptr noundef %0, i32 noundef 3, ptr noundef nonnull %2) #8
  %8 = load i32, ptr %2, align 4
  br label %9

9:                                                ; preds = %5, %1
  %.0 = phi i32 [ 0, %1 ], [ %8, %5 ]
  call void @llvm.lifetime.end.p0(i64 4, ptr nonnull %2) #8
  ret i32 %.0
}